; Function Attrs: nounwind uwtable
define void @Abc_ResPartitionTest(ptr noundef %0) local_unnamed_addr #0 {
  %2 = getelementptr i8, ptr %0, i64 56
  %.val11 = load ptr, ptr %2, align 8
  %3 = getelementptr i8, ptr %.val11, i64 4
  %.val11.val = load i32, ptr %3, align 4
  %4 = getelementptr i8, ptr %0, i64 64
  %.val12 = load ptr, ptr %4, align 8
  %5 = getelementptr i8, ptr %.val12, i64 4
  %.val12.val = load i32, ptr %5, align 4
  %6 = add nsw i32 %.val12.val, %.val11.val
  %7 = tail call ptr @Cudd_Init(i32 noundef %6, i32 noundef 0, i32 noundef 256, i32 noundef 262144, i64 noundef 0) #18
  %8 = tail call ptr @Abc_ResBuildBdd(ptr noundef %0, ptr noundef %7)
  tail call void @Cudd_Ref(ptr noundef %8) #18
  %.val = load ptr, ptr %2, align 8
  %9 = getelementptr i8, ptr %.val, i64 4
  %.val.val = load i32, ptr %9, align 4
  tail call void @Abc_ResPartition(ptr noundef %7, ptr noundef %8, i32 noundef %.val.val)
  tail call void @Cudd_RecursiveDeref(ptr noundef %7, ptr noundef %8) #18
  tail call void @Extra_StopManager(ptr noundef %7) #18
  ret void
}